; Function Attrs: mustprogress uwtable
define internal { double, double } @_ZL17e_healpix_forward5PJ_LPP8PJconsts(double %0, double %1, ptr noundef readonly captures(none) %2) #0 {
  %4 = getelementptr inbounds nuw i8, ptr %2, i64 88
  %5 = load ptr, ptr %4, align 8, !tbaa !40
  %6 = tail call double @sin(double noundef %1) #11, !tbaa !53
  %7 = getelementptr inbounds nuw i8, ptr %2, i64 208
  %8 = load double, ptr %7, align 8, !tbaa !49
  %9 = getelementptr inbounds nuw i8, ptr %2, i64 216
  %10 = load double, ptr %9, align 8, !tbaa !47
  %11 = fsub double 1.000000e+00, %10
  %12 = tail call noundef double @_Z7pj_qsfnddd(double noundef %6, double noundef %8, double noundef %11)
  %13 = getelementptr inbounds nuw i8, ptr %5, i64 16
  %14 = load double, ptr %13, align 8, !tbaa !51
  %15 = fdiv double %12, %14
  %16 = tail call double @llvm.fabs.f64(double %15)
  %17 = fcmp ogt double %16, 1.000000e+00
  br i1 %17, label %18, label %_ZL8auth_latP8PJconstsdi.exit

18:                                               ; preds = %3
  %19 = fcmp ogt double %15, 0.000000e+00
  %20 = fcmp olt double %15, 0.000000e+00
  %21 = sitofp i1 %20 to double
  %22 = select i1 %19, double 1.000000e+00, double %21
  br label %_ZL8auth_latP8PJconstsdi.exit

_ZL8auth_latP8PJconstsdi.exit:                    ; preds = %3, %18
  %.0.i = phi double [ %22, %18 ], [ %15, %3 ]
  %23 = tail call double @asin(double noundef %.0.i) #11, !tbaa !53
  %24 = load ptr, ptr %4, align 8, !tbaa !40
  %25 = tail call double @llvm.fabs.f64(double %23)
  %26 = fcmp ugt double %25, 0x3FE759EDD04F68DE
  %27 = tail call double @sin(double noundef %23) #11, !tbaa !53
  br i1 %26, label %30, label %28

28:                                               ; preds = %_ZL8auth_latP8PJconstsdi.exit
  %29 = fmul double %27, 0x3FF2D97C7F3321D2
  br label %_ZL14healpix_sphere5PJ_LP.exit

30:                                               ; preds = %_ZL8auth_latP8PJconstsdi.exit
  %31 = tail call double @llvm.fabs.f64(double %27)
  %32 = fsub double 1.000000e+00, %31
  %33 = fmul double %32, 3.000000e+00
  %34 = tail call double @sqrt(double noundef %33) #11, !tbaa !53
  %35 = fmul double %0, 2.000000e+00
  %36 = fdiv double %35, 0x400921FB54442D18
  %37 = fadd double %36, 2.000000e+00
  %38 = tail call double @llvm.floor.f64(double %37)
  %39 = fcmp ult double %38, 4.000000e+00
  %40 = tail call double @llvm.fmuladd.f64(double %38, double 0x3FF921FB54442D18, double 0xC002D97C7F3321D2)
  %41 = select i1 %39, double %40, double 0x4002D97C7F3321D2
  %42 = fsub double %0, %41
  %43 = tail call double @llvm.fmuladd.f64(double %42, double %34, double %41)
  %44 = fcmp ogt double %23, 0.000000e+00
  %45 = fcmp olt double %23, 0.000000e+00
  %46 = sitofp i1 %45 to double
  %47 = fmul double %46, 0x3FE921FB54442D18
  %48 = select i1 %44, double 0x3FE921FB54442D18, double %47
  %49 = fsub double 2.000000e+00, %34
  %50 = fmul double %48, %49
  br label %_ZL14healpix_sphere5PJ_LP.exit

_ZL14healpix_sphere5PJ_LP.exit:                   ; preds = %28, %30
  %.sroa.014.0.i = phi double [ %0, %28 ], [ %43, %30 ]
  %.sroa.3.0.i = phi double [ %29, %28 ], [ %50, %30 ]
  %51 = getelementptr inbounds nuw i8, ptr %24, i64 8
  %52 = load double, ptr %51, align 8, !tbaa !44
  %53 = fneg double %52
  %54 = tail call double @cos(double noundef %53) #11, !tbaa !53
  %55 = tail call double @sin(double noundef %53) #11, !tbaa !53
  %56 = fneg double %55
  %57 = fmul double %.sroa.3.0.i, %56
  %58 = tail call double @llvm.fmuladd.f64(double %.sroa.014.0.i, double %54, double %57)
  %59 = tail call double @cos(double noundef %53) #11, !tbaa !53
  %60 = tail call double @sin(double noundef %53) #11, !tbaa !53
  %61 = fmul double %.sroa.014.0.i, %60
  %62 = tail call double @llvm.fmuladd.f64(double %.sroa.3.0.i, double %59, double %61)
  %.fca.0.insert.i9 = insertvalue { double, double } poison, double %58, 0
  %.fca.1.insert.i10 = insertvalue { double, double } %.fca.0.insert.i9, double %62, 1
  ret { double, double } %.fca.1.insert.i10
}